; Function Attrs: mustprogress nofree norecurse nosync nounwind willreturn memory(read, inaccessiblemem: none) uwtable
define internal i64 @gist_bbox_zorder_abbrev_convert(i64 noundef %0, ptr readnone captures(none) %1) #9 {
  %3 = inttoptr i64 %0 to ptr
  %4 = getelementptr inbounds nuw i8, ptr %3, i64 16
  %5 = load double, ptr %4, align 8
  %6 = fptrunc double %5 to float
  %7 = getelementptr inbounds nuw i8, ptr %3, i64 24
  %8 = load double, ptr %7, align 8
  %9 = fptrunc double %8 to float
  %10 = fcmp uno float %6, 0.000000e+00
  br i1 %10, label %ieee_float32_to_uint32.exit.i, label %11

11:                                               ; preds = %2
  %12 = bitcast float %6 to i32
  %13 = xor i32 %12, -1
  %14 = fneg float %6
  %15 = bitcast float %14 to i32
  %.not5.i.i = icmp slt i32 %12, 0
  %.sroa.0.0.i.i = select i1 %.not5.i.i, i32 %13, i32 %15
  %16 = zext i32 %.sroa.0.0.i.i to i64
  br label %ieee_float32_to_uint32.exit.i

ieee_float32_to_uint32.exit.i:                    ; preds = %11, %2
  %.0.i.i = phi i64 [ %16, %11 ], [ 4294967295, %2 ]
  %17 = fcmp uno float %9, 0.000000e+00
  br i1 %17, label %point_zorder_internal.exit, label %18

18:                                               ; preds = %ieee_float32_to_uint32.exit.i
  %19 = bitcast float %9 to i32
  %20 = xor i32 %19, -1
  %21 = fneg float %9
  %22 = bitcast float %21 to i32
  %.not5.i3.i = icmp slt i32 %19, 0
  %.sroa.0.0.i4.i = select i1 %.not5.i3.i, i32 %20, i32 %22
  %23 = zext i32 %.sroa.0.0.i4.i to i64
  br label %point_zorder_internal.exit

point_zorder_internal.exit:                       ; preds = %ieee_float32_to_uint32.exit.i, %18
  %.0.i5.i = phi i64 [ %23, %18 ], [ 4294967295, %ieee_float32_to_uint32.exit.i ]
  %24 = shl nuw nsw i64 %.0.i.i, 16
  %25 = or i64 %24, %.0.i.i
  %26 = and i64 %25, 281470681808895
  %27 = shl nuw nsw i64 %26, 8
  %28 = or i64 %27, %26
  %29 = and i64 %28, 71777214294589695
  %30 = shl nuw nsw i64 %29, 4
  %31 = or i64 %30, %29
  %32 = and i64 %31, 1085102592571150095
  %33 = shl nuw nsw i64 %32, 2
  %34 = or i64 %33, %32
  %35 = and i64 %34, 3689348814741910323
  %36 = shl nuw nsw i64 %35, 1
  %37 = or i64 %36, %35
  %38 = and i64 %37, 6148914691236517205
  %39 = shl nuw nsw i64 %.0.i5.i, 16
  %40 = or i64 %39, %.0.i5.i
  %41 = and i64 %40, 281470681808895
  %42 = shl nuw nsw i64 %41, 8
  %43 = or i64 %42, %41
  %44 = and i64 %43, 71777214294589695
  %45 = shl nuw nsw i64 %44, 4
  %46 = or i64 %45, %44
  %47 = and i64 %46, 1085102592571150095
  %48 = shl nuw nsw i64 %47, 2
  %49 = or i64 %48, %47
  %50 = and i64 %49, 3689348814741910323
  %51 = shl nuw i64 %50, 2
  %52 = shl nuw nsw i64 %50, 1
  %53 = or i64 %51, %52
  %54 = and i64 %53, -6148914691236517206
  %55 = or disjoint i64 %54, %38
  ret i64 %55
}